; Function Attrs: nounwind uwtable
define void @Ivy_ManCollectCut_rec(ptr noundef %0, ptr noundef captures(none) %1, ptr noundef %2) local_unnamed_addr #1 {
  %4 = getelementptr inbounds nuw i8, ptr %1, i64 8
  %5 = load i32, ptr %4, align 8
  %6 = and i32 %5, 16
  %.not = icmp eq i32 %6, 0
  br i1 %.not, label %7, label %49

7:                                                ; preds = %3
  %8 = or disjoint i32 %5, 16
  store i32 %8, ptr %4, align 8
  %9 = getelementptr i8, ptr %1, i64 16
  %.val = load ptr, ptr %9, align 8
  %10 = ptrtoint ptr %.val to i64
  %11 = and i64 %10, -2
  %12 = inttoptr i64 %11 to ptr
  tail call void @Ivy_ManCollectCut_rec(ptr noundef %0, ptr noundef %12, ptr noundef %2)
  %13 = getelementptr i8, ptr %1, i64 24
  %.val10 = load ptr, ptr %13, align 8
  %14 = ptrtoint ptr %.val10 to i64
  %15 = and i64 %14, -2
  %16 = inttoptr i64 %15 to ptr
  tail call void @Ivy_ManCollectCut_rec(ptr noundef %0, ptr noundef %16, ptr noundef %2)
  %17 = load i32, ptr %1, align 8
  %18 = getelementptr inbounds nuw i8, ptr %2, i64 4
  %19 = load i32, ptr %18, align 4
  %20 = load i32, ptr %2, align 8
  %21 = icmp eq i32 %19, %20
  br i1 %21, label %22, label %.Vec_IntGrow.exit10_crit_edge.i

.Vec_IntGrow.exit10_crit_edge.i:                  ; preds = %7
  %.phi.trans.insert.i = getelementptr inbounds nuw i8, ptr %2, i64 8
  %.pre.i = load ptr, ptr %.phi.trans.insert.i, align 8
  br label %Vec_IntPush.exit

22:                                               ; preds = %7
  %23 = icmp slt i32 %19, 16
  br i1 %23, label %24, label %32

24:                                               ; preds = %22
  %25 = getelementptr inbounds nuw i8, ptr %2, i64 8
  %26 = load ptr, ptr %25, align 8
  %.not9.i.i = icmp eq ptr %26, null
  br i1 %.not9.i.i, label %29, label %27

27:                                               ; preds = %24
  %28 = tail call dereferenceable_or_null(64) ptr @realloc(ptr noundef nonnull %26, i64 noundef 64) #17
  br label %Vec_IntGrow.exit.i

29:                                               ; preds = %24
  %30 = tail call noalias dereferenceable_or_null(64) ptr @malloc(i64 noundef 64) #18
  br label %Vec_IntGrow.exit.i

Vec_IntGrow.exit.i:                               ; preds = %29, %27
  %31 = phi ptr [ %28, %27 ], [ %30, %29 ]
  store ptr %31, ptr %25, align 8
  store i32 16, ptr %2, align 8
  br label %Vec_IntPush.exit

32:                                               ; preds = %22
  %33 = shl nuw nsw i32 %19, 1
  %34 = getelementptr inbounds nuw i8, ptr %2, i64 8
  %35 = load ptr, ptr %34, align 8
  %.not9.i9.i = icmp eq ptr %35, null
  %36 = zext nneg i32 %33 to i64
  %37 = shl nuw nsw i64 %36, 2
  br i1 %.not9.i9.i, label %40, label %38

38:                                               ; preds = %32
  %39 = tail call ptr @realloc(ptr noundef nonnull %35, i64 noundef %37) #17
  br label %42

40:                                               ; preds = %32
  %41 = tail call noalias ptr @malloc(i64 noundef %37) #18
  br label %42

42:                                               ; preds = %40, %38
  %43 = phi ptr [ %39, %38 ], [ %41, %40 ]
  store ptr %43, ptr %34, align 8
  store i32 %33, ptr %2, align 8
  br label %Vec_IntPush.exit

Vec_IntPush.exit:                                 ; preds = %.Vec_IntGrow.exit10_crit_edge.i, %Vec_IntGrow.exit.i, %42
  %44 = phi ptr [ %.pre.i, %.Vec_IntGrow.exit10_crit_edge.i ], [ %43, %42 ], [ %31, %Vec_IntGrow.exit.i ]
  %45 = load i32, ptr %18, align 4
  %46 = add nsw i32 %45, 1
  store i32 %46, ptr %18, align 4
  %47 = sext i32 %45 to i64
  %48 = getelementptr inbounds i32, ptr %44, i64 %47
  store i32 %17, ptr %48, align 4
  br label %49

49:                                               ; preds = %3, %Vec_IntPush.exit
  ret void
}